; Function Attrs: mustprogress uwtable
define void @_ZN6google8protobuf8compiler21CodeGeneratorResponse8CopyFromERKS2_(ptr noundef nonnull align 8 dereferenceable(72) %this, ptr noundef nonnull align 8 dereferenceable(72) %from) local_unnamed_addr #3 align 2 personality ptr @__gxx_personality_v0 {
entry:
  %cmp = icmp eq ptr %from, %this
  br i1 %cmp, label %return, label %if.end

if.end:                                           ; preds = %entry
  %0 = getelementptr inbounds i8, ptr %this, i64 16
  %current_size_.i.i.i = getelementptr inbounds i8, ptr %this, i64 32
  %1 = load i32, ptr %current_size_.i.i.i, align 8
  %cmp.i.i.i = icmp sgt i32 %1, 0
  br i1 %cmp.i.i.i, label %if.then.i.i.i, label %_ZN6google8protobuf16RepeatedPtrFieldINS0_8compiler26CodeGeneratorResponse_FileEE5ClearEv.exit.i

if.then.i.i.i:                                    ; preds = %if.end
  %file_.i = getelementptr inbounds i8, ptr %this, i64 24
  %2 = load ptr, ptr %file_.i, align 8
  %3 = ptrtoint ptr %2 to i64
  %and.i.i.i.i.i.i = and i64 %3, 1
  %cmp.i.i.i.i.i.i = icmp eq i64 %and.i.i.i.i.i.i, 0
  %sub.i.i.i.i.i.i = add i64 %3, -1
  %4 = inttoptr i64 %sub.i.i.i.i.i.i to ptr
  %elements.i.i.i.i.i = getelementptr inbounds i8, ptr %4, i64 8
  %cond.i.i.i.i.i = select i1 %cmp.i.i.i.i.i.i, ptr %file_.i, ptr %elements.i.i.i.i.i
  %wide.trip.count.i.i.i.i = zext nneg i32 %1 to i64
  br label %do.body.i.i.i.i

do.body.i.i.i.i:                                  ; preds = %do.body.i.i.i.i, %if.then.i.i.i
  %indvars.iv.i.i.i.i = phi i64 [ %indvars.iv.next.i.i.i.i, %do.body.i.i.i.i ], [ 0, %if.then.i.i.i ]
  %indvars.iv.next.i.i.i.i = add nuw nsw i64 %indvars.iv.i.i.i.i, 1
  %arrayidx.i.i.i.i = getelementptr inbounds ptr, ptr %cond.i.i.i.i.i, i64 %indvars.iv.i.i.i.i
  %5 = load ptr, ptr %arrayidx.i.i.i.i, align 8
  %vtable.i.i.i.i.i = load ptr, ptr %5, align 8
  %vfn.i.i.i.i.i = getelementptr inbounds i8, ptr %vtable.i.i.i.i.i, i64 24
  %6 = load ptr, ptr %vfn.i.i.i.i.i, align 8
  tail call void %6(ptr noundef nonnull align 8 dereferenceable(16) %5)
  %exitcond.not.i.i.i.i = icmp eq i64 %indvars.iv.next.i.i.i.i, %wide.trip.count.i.i.i.i
  br i1 %exitcond.not.i.i.i.i, label %_ZN6google8protobuf8internal20RepeatedPtrFieldBase13ClearNonEmptyINS1_18GenericTypeHandlerINS0_11MessageLiteEEEEEvv.exit.i.i.i, label %do.body.i.i.i.i, !llvm.loop !14

_ZN6google8protobuf8internal20RepeatedPtrFieldBase13ClearNonEmptyINS1_18GenericTypeHandlerINS0_11MessageLiteEEEEEvv.exit.i.i.i: ; preds = %do.body.i.i.i.i
  store i32 0, ptr %current_size_.i.i.i, align 8
  br label %_ZN6google8protobuf16RepeatedPtrFieldINS0_8compiler26CodeGeneratorResponse_FileEE5ClearEv.exit.i

_ZN6google8protobuf16RepeatedPtrFieldINS0_8compiler26CodeGeneratorResponse_FileEE5ClearEv.exit.i: ; preds = %_ZN6google8protobuf8internal20RepeatedPtrFieldBase13ClearNonEmptyINS1_18GenericTypeHandlerINS0_11MessageLiteEEEEEvv.exit.i.i.i, %if.end
  %7 = load i32, ptr %0, align 8
  %and.i = and i32 %7, 1
  %tobool.not.i = icmp eq i32 %and.i, 0
  br i1 %tobool.not.i, label %if.end.i, label %if.then.i

if.then.i:                                        ; preds = %_ZN6google8protobuf16RepeatedPtrFieldINS0_8compiler26CodeGeneratorResponse_FileEE5ClearEv.exit.i
  %error_.i = getelementptr inbounds i8, ptr %this, i64 48
  %8 = load ptr, ptr %error_.i, align 8
  %9 = ptrtoint ptr %8 to i64
  %and.i.i.i = and i64 %9, -4
  %10 = inttoptr i64 %and.i.i.i to ptr
  tail call void @_ZNSt7__cxx1112basic_stringIcSt11char_traitsIcESaIcEE5clearEv(ptr noundef nonnull align 8 dereferenceable(32) %10) #18
  br label %if.end.i

if.end.i:                                         ; preds = %if.then.i, %_ZN6google8protobuf16RepeatedPtrFieldINS0_8compiler26CodeGeneratorResponse_FileEE5ClearEv.exit.i
  %and2.i = and i32 %7, 14
  %tobool3.not.i = icmp eq i32 %and2.i, 0
  br i1 %tobool3.not.i, label %if.end6.i, label %if.then4.i

if.then4.i:                                       ; preds = %if.end.i
  %supported_features_.i = getelementptr inbounds i8, ptr %this, i64 56
  tail call void @llvm.memset.p0.i64(ptr noundef nonnull align 8 dereferenceable(16) %supported_features_.i, i8 0, i64 16, i1 false)
  br label %if.end6.i

if.end6.i:                                        ; preds = %if.then4.i, %if.end.i
  store i32 0, ptr %0, align 8
  %_internal_metadata_.i = getelementptr inbounds i8, ptr %this, i64 8
  %11 = load i64, ptr %_internal_metadata_.i, align 8
  %and.i.i = and i64 %11, 1
  %tobool.i.not.i = icmp eq i64 %and.i.i, 0
  br i1 %tobool.i.not.i, label %_ZN6google8protobuf8compiler21CodeGeneratorResponse5ClearEv.exit, label %if.then.i.i

if.then.i.i:                                      ; preds = %if.end6.i
  tail call void @_ZN6google8protobuf8internal16InternalMetadata7DoClearINS0_15UnknownFieldSetEEEvv(ptr noundef nonnull align 8 dereferenceable(8) %_internal_metadata_.i)
  br label %_ZN6google8protobuf8compiler21CodeGeneratorResponse5ClearEv.exit

_ZN6google8protobuf8compiler21CodeGeneratorResponse5ClearEv.exit: ; preds = %if.end6.i, %if.then.i.i
  tail call void @_ZN6google8protobuf8compiler21CodeGeneratorResponse9MergeImplERNS0_11MessageLiteERKS3_(ptr noundef nonnull align 8 dereferenceable(16) %this, ptr noundef nonnull align 8 dereferenceable(16) %from)
  br label %return

return:                                           ; preds = %entry, %_ZN6google8protobuf8compiler21CodeGeneratorResponse5ClearEv.exit
  ret void
}